; Function Attrs: nounwind sspstrong uwtable
define dso_local void @qdev_propinfo_set_enum(ptr noundef %obj, ptr noundef %v, ptr noundef %name, ptr noundef readonly captures(none) %opaque, ptr noundef %errp) #0 {
entry:
  %offset.i = getelementptr inbounds nuw i8, ptr %opaque, i64 16
  %0 = load i64, ptr %offset.i, align 8
  %add.ptr.i = getelementptr i8, ptr %obj, i64 %0
  %info = getelementptr inbounds nuw i8, ptr %opaque, i64 8
  %1 = load ptr, ptr %info, align 8
  %enum_table = getelementptr inbounds nuw i8, ptr %1, i64 16
  %2 = load ptr, ptr %enum_table, align 8
  %call1 = tail call zeroext i1 @visit_type_enum(ptr noundef %v, ptr noundef %name, ptr noundef %add.ptr.i, ptr noundef %2, ptr noundef %errp) #9
  ret void
}